(iNIHtool
review
p0
(dp1
S'total'
p2
I0
sS'Title'
p3
S'Surgical Robotics for DNA splicing'
p4
sS'ID'
p5
S'R01 CAxxxxxx-01'
p6
sS'project'
p7
S'Proj02'
p8
sS'Institution'
p9
S'Washington'
p10
sS'nscores'
p11
I0
sS'criteria'
p12
(lp13
(iNIHtool
criterion
p14
(dp15
S'scored'
p16
I1
sS'name'
p17
S'Overall Impact'
p18
sS'fields'
p19
(dp20
S'general comments'
p21
VNone
p22
ssS'score'
p23
S'1'
p24
sS'bp'
p25
(lp26
sS'instructions'
p27
S' Reviewers will provide an overall impact score to reflect their assessment of the likelihood for the project to exert a sustained, powerful influence on the research field(s) involved, in consideration of the following five scored review criteria, and additional review criteria. An application does not need to be strong in all categories to be judged likely to have major scientific impact.'
p28
sba(iNIHtool
criterion
p29
(dp30
g16
I1
sg17
S'Significance'
p31
sg19
(dp32
S'weaknesses'
p33
VNone
p34
sS'strengths'
p35
S''
p36
sg21
g36
ssg23
S'4'
p37
sg25
(lp38
sg27
S'-no instructions-'
p39
sba(iNIHtool
criterion
p40
(dp41
g16
I1
sg17
S'Investigator(s)'
p42
sg19
(dp43
g33
g36
sg35
g36
sg21
g36
ssg23
g37
sg25
(lp44
sg27
g39
sba(iNIHtool
criterion
p45
(dp46
g16
I1
sg17
S'Innovation'
p47
sg19
(dp48
g33
g36
sg35
g36
sg21
g36
ssg23
g37
sg25
(lp49
sg27
g39
sba(iNIHtool
criterion
p50
(dp51
g16
I1
sg17
S'Approach'
p52
sg19
(dp53
g33
g36
sg35
g36
sg21
g36
ssg23
I4
sg25
(lp54
sg27
g39
sba(iNIHtool
criterion
p55
(dp56
g16
I1
sg17
S'Environment'
p57
sg19
(dp58
g33
g36
sg35
g36
sg21
g36
ssg23
I4
sg25
(lp59
sg27
g39
sba(iNIHtool
criterion
p60
(dp61
g16
I0
sg17
S'Protections for Human Subjects'
p62
sg19
(dp63
g21
g36
ssg23
I0
sg25
(lp64
sg27
S'Comments (Required Unless Not Applicable): '
p65
sba(iNIHtool
criterion
p66
(dp67
g16
I0
sg17
S'Data and Safety Monitoring Plan'
p68
sg19
(dp69
g21
g36
ssg23
I0
sg25
(lp70
sg27
S'(Applicable for Clinical Trials Only) Comments (Required Unless Not Applicable): '
p71
sba(iNIHtool
criterion
p72
(dp73
g16
I0
sg17
S'Inclusion of Women, Minorities and Children'
p74
sg19
(dp75
g21
g36
ssg23
I0
sg25
(lp76
sg27
S'Applicable Only for Human Subjects research and not IRB Exemption #4. Comments (Required Unless Not Applicable): '
p77
sba(iNIHtool
criterion
p78
(dp79
g16
I0
sg17
S'Vertebrate Animals'
p80
sg19
(dp81
g21
g36
ssg23
I0
sg25
(lp82
sg27
S' Is the proposed research involving vertebrate animals scientifically appropriate, including the justification for animal usage and protections for research animals described in the Vertebrate Animal section?'
p83
sba(iNIHtool
criterion
p84
(dp85
g16
I0
sg17
S'Authentication of Key Biological and/or Chemical Resources '
p86
sg19
(dp87
g21
g36
ssg23
I0
sg25
(lp88
sg27
S'Comments (Required Unless Not Applicable): '
p89
sba(iNIHtool
criterion
p90
(dp91
g16
I0
sg17
S'Budget and Period of Support'
p92
sg19
(dp93
g21
g36
ssg23
I0
sg25
(lp94
sg27
S'Recommended budget modifications or possible overlap identified:'
p95
sba(iNIHtool
criterion
p96
(dp97
g16
I0
sg17
S'Additional Comments to Applicant'
p98
sg19
(dp99
g21
VNone
p100
ssg23
I0
sg25
(lp101
sg27
S'Reviewers may provide guidance to the applicant or recommend against resubmission without fundamental revision.'
p102
sbasS'PI'
p103
S'Hannaford'
p104
sS'overall_score'
p105
I0
sb.