(iNIHtool
review
p0
(dp1
S'total'
p2
I0
sS'Title'
p3
S'Treadmill walking vs TV watching'
p4
sS'ID'
p5
S'R21 EYaaaaaa-01'
p6
sS'project'
p7
S'Proj02'
p8
sS'Institution'
p9
S'Podunk Univ.'
p10
sS'nscores'
p11
I0
sS'criteria'
p12
(lp13
(iNIHtool
criterion
p14
(dp15
S'scored'
p16
I1
sS'name'
p17
S'Overall Impact'
p18
sS'fields'
p19
(dp20
S'general comments'
p21
VOK gc EYaaaaaa
p22
ssS'score'
p23
S'4'
p24
sS'bp'
p25
(lp26
sS'instructions'
p27
S' Reviewers will provide an overall impact score to reflect their assessment of the likelihood for the project to exert a sustained, powerful influence on the research field(s) involved, in consideration of the following five scored review criteria, and additional review criteria. An application does not need to be strong in all categories to be judged likely to have major scientific impact.'
p28
sba(iNIHtool
criterion
p29
(dp30
g16
I1
sg17
S'Significance'
p31
sg19
(dp32
S'weaknesses'
p33
VNone
p34
sS'strengths'
p35
VSig strengths  Treadmill
p36
sg21
S''
p37
ssg23
S'4'
p38
sg25
(lp39
sg27
S'-no instructions-'
p40
sba(iNIHtool
criterion
p41
(dp42
g16
I1
sg17
S'Investigator(s)'
p43
sg19
(dp44
g33
VNone
p45
sg35
VExcellent
p46
sg21
g37
ssg23
g38
sg25
(lp47
sg27
g40
sba(iNIHtool
criterion
p48
(dp49
g16
I1
sg17
S'Innovation'
p50
sg19
(dp51
g33
g37
sg35
g37
sg21
g37
ssg23
I4
sg25
(lp52
sg27
g40
sba(iNIHtool
criterion
p53
(dp54
g16
I1
sg17
S'Approach'
p55
sg19
(dp56
g33
VNoneN/A
p57
sg35
g37
sg21
g37
ssg23
I4
sg25
(lp58
sg27
g40
sba(iNIHtool
criterion
p59
(dp60
g16
I1
sg17
S'Environment'
p61
sg19
(dp62
g33
g37
sg35
g37
sg21
g37
ssg23
I4
sg25
(lp63
sg27
g40
sba(iNIHtool
criterion
p64
(dp65
g16
I0
sg17
S'Protections for Human Subjects'
p66
sg19
(dp67
g21
g37
ssg23
I0
sg25
(lp68
sg27
S'Comments (Required Unless Not Applicable): '
p69
sba(iNIHtool
criterion
p70
(dp71
g16
I0
sg17
S'Data and Safety Monitoring Plan'
p72
sg19
(dp73
g21
g37
ssg23
I0
sg25
(lp74
sg27
S'(Applicable for Clinical Trials Only) Comments (Required Unless Not Applicable): '
p75
sba(iNIHtool
criterion
p76
(dp77
g16
I0
sg17
S'Inclusion of Women, Minorities and Children'
p78
sg19
(dp79
g21
g37
ssg23
I0
sg25
(lp80
sg27
S'Applicable Only for Human Subjects research and not IRB Exemption #4. Comments (Required Unless Not Applicable): '
p81
sba(iNIHtool
criterion
p82
(dp83
g16
I0
sg17
S'Vertebrate Animals'
p84
sg19
(dp85
g21
g37
ssg23
I0
sg25
(lp86
sg27
S' Is the proposed research involving vertebrate animals scientifically appropriate, including the justification for animal usage and protections for research animals described in the Vertebrate Animal section?'
p87
sba(iNIHtool
criterion
p88
(dp89
g16
I0
sg17
S'Authentication of Key Biological and/or Chemical Resources '
p90
sg19
(dp91
g21
g37
ssg23
I0
sg25
(lp92
sg27
S'Comments (Required Unless Not Applicable): '
p93
sba(iNIHtool
criterion
p94
(dp95
g16
I0
sg17
S'Budget and Period of Support'
p96
sg19
(dp97
g21
g37
ssg23
I0
sg25
(lp98
sg27
S'Recommended budget modifications or possible overlap identified:'
p99
sba(iNIHtool
criterion
p100
(dp101
g16
I0
sg17
S'Additional Comments to Applicant'
p102
sg19
(dp103
g21
g37
ssg23
I0
sg25
(lp104
sg27
S'Reviewers may provide guidance to the applicant or recommend against resubmission without fundamental revision.'
p105
sbasS'PI'
p106
S'Jones'
p107
sS'overall_score'
p108
I0
sb.